target datalayout = "e-m:e-p270:32:32-p271:32:32-p272:64:64-i64:64-i128:128-f80:128-n8:16:32:64-S128"
target triple = "x86_64-pc-linux-gnu"

%"class.clang::ento::CoreEngine" = type { ptr, %"class.clang::ento::ExplodedGraph", %"class.std::unique_ptr", %"class.std::unique_ptr", %"class.clang::ento::BlockCounter::Factory", %"class.std::vector.2", %"class.std::vector.7", ptr, %"class.clang::ento::DataTag::Factory" }
%"class.clang::ento::ExplodedGraph" = type { %"class.std::vector", %"class.std::vector", %"class.llvm::FoldingSet", %"class.clang::BumpVectorContext", i64, %"class.std::vector", %"class.std::vector", i32, i32 }
%"class.llvm::FoldingSet" = type { %"class.llvm::FoldingSetImpl" }
%"class.llvm::FoldingSetImpl" = type { %"class.llvm::FoldingSetBase" }
%"class.llvm::FoldingSetBase" = type { ptr, i32, i32 }
%"class.clang::BumpVectorContext" = type { %"class.llvm::PointerIntPair" }
%"class.llvm::PointerIntPair" = type { %"struct.llvm::detail::PunnedPointer" }
%"struct.llvm::detail::PunnedPointer" = type { [8 x i8] }
%"class.std::vector" = type { %"struct.std::_Vector_base" }
%"struct.std::_Vector_base" = type { %"struct.std::_Vector_base<clang::ento::ExplodedNode *, std::allocator<clang::ento::ExplodedNode *>>::_Vector_impl" }
%"struct.std::_Vector_base<clang::ento::ExplodedNode *, std::allocator<clang::ento::ExplodedNode *>>::_Vector_impl" = type { %"struct.std::_Vector_base<clang::ento::ExplodedNode *, std::allocator<clang::ento::ExplodedNode *>>::_Vector_impl_data" }
%"struct.std::_Vector_base<clang::ento::ExplodedNode *, std::allocator<clang::ento::ExplodedNode *>>::_Vector_impl_data" = type { ptr, ptr, ptr }
%"class.std::unique_ptr" = type { %"struct.std::__uniq_ptr_data" }
%"struct.std::__uniq_ptr_data" = type { %"class.std::__uniq_ptr_impl" }
%"class.std::__uniq_ptr_impl" = type { %"class.std::tuple" }
%"class.std::tuple" = type { %"struct.std::_Tuple_impl" }
%"struct.std::_Tuple_impl" = type { %"struct.std::_Head_base.1" }
%"struct.std::_Head_base.1" = type { ptr }
%"class.clang::ento::BlockCounter::Factory" = type { ptr }
%"class.std::vector.2" = type { %"struct.std::_Vector_base.3" }
%"struct.std::_Vector_base.3" = type { %"struct.std::_Vector_base<std::pair<clang::BlockEdge, const clang::ento::ExplodedNode *>, std::allocator<std::pair<clang::BlockEdge, const clang::ento::ExplodedNode *>>>::_Vector_impl" }
%"struct.std::_Vector_base<std::pair<clang::BlockEdge, const clang::ento::ExplodedNode *>, std::allocator<std::pair<clang::BlockEdge, const clang::ento::ExplodedNode *>>>::_Vector_impl" = type { %"struct.std::_Vector_base<std::pair<clang::BlockEdge, const clang::ento::ExplodedNode *>, std::allocator<std::pair<clang::BlockEdge, const clang::ento::ExplodedNode *>>>::_Vector_impl_data" }
%"struct.std::_Vector_base<std::pair<clang::BlockEdge, const clang::ento::ExplodedNode *>, std::allocator<std::pair<clang::BlockEdge, const clang::ento::ExplodedNode *>>>::_Vector_impl_data" = type { ptr, ptr, ptr }
%"class.std::vector.7" = type { %"struct.std::_Vector_base.8" }
%"struct.std::_Vector_base.8" = type { %"struct.std::_Vector_base<std::pair<const clang::CFGBlock *, const clang::ento::ExplodedNode *>, std::allocator<std::pair<const clang::CFGBlock *, const clang::ento::ExplodedNode *>>>::_Vector_impl" }
%"struct.std::_Vector_base<std::pair<const clang::CFGBlock *, const clang::ento::ExplodedNode *>, std::allocator<std::pair<const clang::CFGBlock *, const clang::ento::ExplodedNode *>>>::_Vector_impl" = type { %"struct.std::_Vector_base<std::pair<const clang::CFGBlock *, const clang::ento::ExplodedNode *>, std::allocator<std::pair<const clang::CFGBlock *, const clang::ento::ExplodedNode *>>>::_Vector_impl_data" }
%"struct.std::_Vector_base<std::pair<const clang::CFGBlock *, const clang::ento::ExplodedNode *>, std::allocator<std::pair<const clang::CFGBlock *, const clang::ento::ExplodedNode *>>>::_Vector_impl_data" = type { ptr, ptr, ptr }
%"class.clang::ento::DataTag::Factory" = type { %"class.std::vector.12" }
%"class.std::vector.12" = type { %"struct.std::_Vector_base.13" }
%"struct.std::_Vector_base.13" = type { %"struct.std::_Vector_base<std::unique_ptr<clang::ento::DataTag>, std::allocator<std::unique_ptr<clang::ento::DataTag>>>::_Vector_impl" }
%"struct.std::_Vector_base<std::unique_ptr<clang::ento::DataTag>, std::allocator<std::unique_ptr<clang::ento::DataTag>>>::_Vector_impl" = type { %"struct.std::_Vector_base<std::unique_ptr<clang::ento::DataTag>, std::allocator<std::unique_ptr<clang::ento::DataTag>>>::_Vector_impl_data" }
%"struct.std::_Vector_base<std::unique_ptr<clang::ento::DataTag>, std::allocator<std::unique_ptr<clang::ento::DataTag>>>::_Vector_impl_data" = type { ptr, ptr, ptr }
%"class.clang::ento::BlockCounter" = type { ptr }
%"class.clang::ento::WorkList" = type { ptr, %"class.clang::ento::BlockCounter" }

; Function Attrs: mustprogress nounwind uwtable
define linkonce_odr hidden noundef nonnull align 8 dereferenceable(8) ptr @_ZNSt10_Head_baseILm0EPN5clang4ento8WorkListELb0EE7_M_headERKS4_(ptr noundef nonnull align 8 dereferenceable(8) %0) #1 comdat align 2 {
  %2 = alloca ptr, align 8
  store ptr %0, ptr %2, align 8
  %3 = load ptr, ptr %2, align 8
  %4 = getelementptr inbounds nuw %"struct.std::_Head_base.1", ptr %3, i32 0, i32 0
  ret ptr %4
}

; Function Attrs: mustprogress nounwind uwtable
define linkonce_odr hidden noundef nonnull align 8 dereferenceable(8) ptr @_ZNSt11_Tuple_implILm0EJPN5clang4ento8WorkListESt14default_deleteIS2_EEE7_M_headERKS6_(ptr noundef nonnull align 8 dereferenceable(8) %0) #1 comdat align 2 {
  %2 = alloca ptr, align 8
  store ptr %0, ptr %2, align 8
  %3 = load ptr, ptr %2, align 8
  %4 = call noundef nonnull align 8 dereferenceable(8) ptr @_ZNSt10_Head_baseILm0EPN5clang4ento8WorkListELb0EE7_M_headERKS4_(ptr noundef nonnull align 8 dereferenceable(8) %3) #9
  ret ptr %4
}

; Function Attrs: mustprogress nounwind uwtable
define linkonce_odr noundef nonnull align 8 dereferenceable(8) ptr @_ZSt12__get_helperILm0EPN5clang4ento8WorkListEJSt14default_deleteIS2_EEERKT0_RKSt11_Tuple_implIXT_EJS6_DpT1_EE(ptr noundef nonnull align 8 dereferenceable(8) %0) #1 comdat {
  %2 = alloca ptr, align 8
  store ptr %0, ptr %2, align 8
  %3 = load ptr, ptr %2, align 8
  %4 = call noundef nonnull align 8 dereferenceable(8) ptr @_ZNSt11_Tuple_implILm0EJPN5clang4ento8WorkListESt14default_deleteIS2_EEE7_M_headERKS6_(ptr noundef nonnull align 8 dereferenceable(8) %3) #9
  ret ptr %4
}

; Function Attrs: mustprogress nounwind uwtable
define linkonce_odr noundef nonnull align 8 dereferenceable(8) ptr @_ZSt3getILm0EJPN5clang4ento8WorkListESt14default_deleteIS2_EEERKNSt13tuple_elementIXT_ESt5tupleIJDpT0_EEE4typeERKSA_(ptr noundef nonnull align 8 dereferenceable(8) %0) #1 comdat {
  %2 = alloca ptr, align 8
  store ptr %0, ptr %2, align 8
  %3 = load ptr, ptr %2, align 8
  %4 = call noundef nonnull align 8 dereferenceable(8) ptr @_ZSt12__get_helperILm0EPN5clang4ento8WorkListEJSt14default_deleteIS2_EEERKT0_RKSt11_Tuple_implIXT_EJS6_DpT1_EE(ptr noundef nonnull align 8 dereferenceable(8) %3) #9
  ret ptr %4
}

; Function Attrs: mustprogress nounwind uwtable
define linkonce_odr hidden noundef ptr @_ZNKSt15__uniq_ptr_implIN5clang4ento8WorkListESt14default_deleteIS2_EE6_M_ptrEv(ptr noundef nonnull align 8 dereferenceable(8) %0) #1 comdat align 2 {
  %2 = alloca ptr, align 8
  store ptr %0, ptr %2, align 8
  %3 = load ptr, ptr %2, align 8
  %4 = getelementptr inbounds nuw %"class.std::__uniq_ptr_impl", ptr %3, i32 0, i32 0
  %5 = call noundef nonnull align 8 dereferenceable(8) ptr @_ZSt3getILm0EJPN5clang4ento8WorkListESt14default_deleteIS2_EEERKNSt13tuple_elementIXT_ESt5tupleIJDpT0_EEE4typeERKSA_(ptr noundef nonnull align 8 dereferenceable(8) %4) #9
  %6 = load ptr, ptr %5, align 8
  ret ptr %6
}

; Function Attrs: mustprogress nounwind uwtable
define linkonce_odr hidden noundef ptr @_ZNKSt10unique_ptrIN5clang4ento8WorkListESt14default_deleteIS2_EE3getEv(ptr noundef nonnull align 8 dereferenceable(8) %0) #1 comdat align 2 {
  %2 = alloca ptr, align 8
  store ptr %0, ptr %2, align 8
  %3 = load ptr, ptr %2, align 8
  %4 = getelementptr inbounds nuw %"class.std::unique_ptr", ptr %3, i32 0, i32 0
  %5 = call noundef ptr @_ZNKSt15__uniq_ptr_implIN5clang4ento8WorkListESt14default_deleteIS2_EE6_M_ptrEv(ptr noundef nonnull align 8 dereferenceable(8) %4) #9
  ret ptr %5
}

; Function Attrs: mustprogress nounwind uwtable
define linkonce_odr hidden noundef zeroext i1 @_ZNKSt10unique_ptrIN5clang4ento8WorkListESt14default_deleteIS2_EEcvbEv(ptr noundef nonnull align 8 dereferenceable(8) %0) #1 comdat align 2 {
  %2 = alloca ptr, align 8
  store ptr %0, ptr %2, align 8
  %3 = load ptr, ptr %2, align 8
  %4 = call noundef ptr @_ZNKSt10unique_ptrIN5clang4ento8WorkListESt14default_deleteIS2_EE3getEv(ptr noundef nonnull align 8 dereferenceable(8) %3) #9
  %5 = icmp eq ptr %4, null
  %6 = select i1 %5, i1 false, i1 true
  ret i1 %6
}

; Function Attrs: mustprogress nounwind uwtable
define linkonce_odr hidden void @_ZN5clang4ento8WorkList15setBlockCounterENS0_12BlockCounterE(ptr noundef nonnull align 8 dereferenceable(16) %0, ptr %1) #1 comdat align 2 {
  %3 = alloca %"class.clang::ento::BlockCounter", align 8
  %4 = alloca ptr, align 8
  %5 = getelementptr inbounds nuw %"class.clang::ento::BlockCounter", ptr %3, i32 0, i32 0
  store ptr %1, ptr %5, align 8
  store ptr %0, ptr %4, align 8
  %6 = load ptr, ptr %4, align 8
  %7 = getelementptr inbounds nuw %"class.clang::ento::WorkList", ptr %6, i32 0, i32 1
  call void @llvm.memcpy.p0.p0.i64(ptr align 8 %7, ptr align 8 %3, i64 8, i1 false)
  ret void
}

; Function Attrs: mustprogress nounwind uwtable
define linkonce_odr hidden noundef ptr @_ZNKSt10unique_ptrIN5clang4ento8WorkListESt14default_deleteIS2_EEptEv(ptr noundef nonnull align 8 dereferenceable(8) %0) #1 comdat align 2 {
  %2 = alloca ptr, align 8
  store ptr %0, ptr %2, align 8
  %3 = load ptr, ptr %2, align 8
  %4 = call noundef ptr @_ZNKSt10unique_ptrIN5clang4ento8WorkListESt14default_deleteIS2_EE3getEv(ptr noundef nonnull align 8 dereferenceable(8) %3) #9
  ret ptr %4
}

; Function Attrs: mustprogress nounwind uwtable
define dso_local void @_ZN5clang4ento10CoreEngine15setBlockCounterENS0_12BlockCounterE(ptr noundef nonnull align 8 dereferenceable(248) %0, ptr %1) #1 align 2 {
  %3 = alloca %"class.clang::ento::BlockCounter", align 8
  %4 = alloca ptr, align 8
  %5 = alloca %"class.clang::ento::BlockCounter", align 8
  %6 = alloca %"class.clang::ento::BlockCounter", align 8
  %7 = getelementptr inbounds nuw %"class.clang::ento::BlockCounter", ptr %3, i32 0, i32 0
  store ptr %1, ptr %7, align 8
  store ptr %0, ptr %4, align 8
  %8 = load ptr, ptr %4, align 8
  %9 = getelementptr inbounds nuw %"class.clang::ento::CoreEngine", ptr %8, i32 0, i32 2
  %10 = call noundef ptr @_ZNKSt10unique_ptrIN5clang4ento8WorkListESt14default_deleteIS2_EEptEv(ptr noundef nonnull align 8 dereferenceable(8) %9) #9
  call void @llvm.memcpy.p0.p0.i64(ptr align 8 %5, ptr align 8 %3, i64 8, i1 false)
  %11 = getelementptr inbounds nuw %"class.clang::ento::BlockCounter", ptr %5, i32 0, i32 0
  %12 = load ptr, ptr %11, align 8
  call void @_ZN5clang4ento8WorkList15setBlockCounterENS0_12BlockCounterE(ptr noundef nonnull align 8 dereferenceable(16) %10, ptr %12)
  %13 = getelementptr inbounds nuw %"class.clang::ento::CoreEngine", ptr %8, i32 0, i32 3
  %14 = call noundef zeroext i1 @_ZNKSt10unique_ptrIN5clang4ento8WorkListESt14default_deleteIS2_EEcvbEv(ptr noundef nonnull align 8 dereferenceable(8) %13) #9
  br i1 %14, label %15, label %20

15:                                               ; preds = %2
  %16 = getelementptr inbounds nuw %"class.clang::ento::CoreEngine", ptr %8, i32 0, i32 3
  %17 = call noundef ptr @_ZNKSt10unique_ptrIN5clang4ento8WorkListESt14default_deleteIS2_EEptEv(ptr noundef nonnull align 8 dereferenceable(8) %16) #9
  call void @llvm.memcpy.p0.p0.i64(ptr align 8 %6, ptr align 8 %3, i64 8, i1 false)
  %18 = getelementptr inbounds nuw %"class.clang::ento::BlockCounter", ptr %6, i32 0, i32 0
  %19 = load ptr, ptr %18, align 8
  call void @_ZN5clang4ento8WorkList15setBlockCounterENS0_12BlockCounterE(ptr noundef nonnull align 8 dereferenceable(16) %17, ptr %19)
  br label %20

20:                                               ; preds = %15, %2
  ret void
}